target datalayout = "e-m:e-p270:32:32-p271:32:32-p272:64:64-i64:64-i128:128-f80:128-n8:16:32:64-S128"
target triple = "x86_64-unknown-linux-gnu"

@.str.19 = private unnamed_addr constant [118 x i8] c"generated/home/dtcxzyw/WorkSpace/Projects/compilers/llvm-opt-benchmark/bench/grpc/grpc/src/core/lib/promise/context.h\00", align 1
@.str.20 = private unnamed_addr constant [13 x i8] c"p != nullptr\00", align 1
@_ZN9grpc_core14promise_detail7ContextINS_5ArenaEE8current_E = linkonce_odr thread_local global ptr null, comdat, align 8

; Function Attrs: mustprogress nounwind uwtable
define linkonce_odr noundef ptr @_ZN9grpc_core14promise_detail7ContextINS_5ArenaEE3getEv() #4 comdat align 2 {
entry:
  %0 = call align 8 ptr @llvm.threadlocal.address.p0(ptr align 8 @_ZN9grpc_core14promise_detail7ContextINS_5ArenaEE8current_E)
  %1 = load ptr, ptr %0, align 8
  ret ptr %1
}

; Function Attrs: mustprogress uwtable
define linkonce_odr noundef ptr @_ZN9grpc_core10GetContextINS_5ArenaEEEPT_v() #5 comdat {
entry:
  %p = alloca ptr, align 8
  %call = call noundef ptr @_ZN9grpc_core14promise_detail7ContextINS_5ArenaEE3getEv()
  store ptr %call, ptr %p, align 8
  br label %do.body

do.body:                                          ; preds = %entry
  %0 = load ptr, ptr %p, align 8
  %cmp = icmp ne ptr %0, null
  %lnot = xor i1 %cmp, true
  br i1 %lnot, label %if.then, label %if.end

if.then:                                          ; preds = %do.body
  call void @gpr_assertion_failed(ptr noundef @.str.19, i32 noundef 80, ptr noundef @.str.20) #17
  unreachable

if.end:                                           ; preds = %do.body
  br label %do.end

do.end:                                           ; preds = %if.end
  %1 = load ptr, ptr %p, align 8
  ret ptr %1
}

; Function Attrs: mustprogress uwtable
define internal void @"_ZN9grpc_core5Party15ParticipantImplINS_14promise_detail4RaceIJNS2_3MapIZNS_25ExternallyObservableLatchIvE4WaitEvEUlvE_ZNS_12_GLOBAL__N_121MakeServerCallPromiseEPNS_9TransportENS_8CallArgsESt8functionIFNS_12ArenaPromiseISt10unique_ptrI19grpc_metadata_batchNS_5Arena13PooledDeleterEEEESB_EEE3$_6EENS4_INS2_4LoopIZNS8_22ConnectedChannelStream12RecvMessagesEPNS_10PipeSenderISE_INS_7MessageESH_EEEbE3$_0EEZNS8_21MakeServerCallPromiseESA_SB_SL_E3$_7EEEEEZNS8_21MakeServerCallPromiseESA_SB_SL_E3$_8E7DestroyEv"(ptr noundef nonnull align 8 dereferenceable(152) %this) unnamed_addr #5 align 2 {
entry:
  %this.addr = alloca ptr, align 8
  store ptr %this, ptr %this.addr, align 8
  %this1 = load ptr, ptr %this.addr, align 8
  %call = call noundef ptr @_ZN9grpc_core10GetContextINS_5ArenaEEEPT_v()
  call void @"_ZN9grpc_core5Arena12DeletePooledINS_5Party15ParticipantImplINS_14promise_detail4RaceIJNS4_3MapIZNS_25ExternallyObservableLatchIvE4WaitEvEUlvE_ZNS_12_GLOBAL__N_121MakeServerCallPromiseEPNS_9TransportENS_8CallArgsESt8functionIFNS_12ArenaPromiseISt10unique_ptrI19grpc_metadata_batchNS0_13PooledDeleterEEEESD_EEE3$_6EENS6_INS4_4LoopIZNSA_22ConnectedChannelStream12RecvMessagesEPNS_10PipeSenderISG_INS_7MessageESI_EEEbE3$_0EEZNSA_21MakeServerCallPromiseESC_SD_SM_E3$_7EEEEEZNSA_21MakeServerCallPromiseESC_SD_SM_E3$_8EEEEvPT_"(ptr noundef nonnull align 8 dereferenceable(48) %call, ptr noundef %this1)
  ret void
}