; Function Attrs: mustprogress uwtable
define internal void @"_ZN9grpc_core5Party15ParticipantImplINS_14promise_detail4RaceIJNS2_3MapIZNS_25ExternallyObservableLatchIvE4WaitEvEUlvE_ZNS_12_GLOBAL__N_121MakeServerCallPromiseEPNS_9TransportENS_8CallArgsESt8functionIFNS_12ArenaPromiseISt10unique_ptrI19grpc_metadata_batchNS_5Arena13PooledDeleterEEEESB_EEE3$_6EENS4_INS2_4LoopIZNS8_22ConnectedChannelStream12RecvMessagesEPNS_10PipeSenderISE_INS_7MessageESH_EEEbE3$_0EEZNS8_21MakeServerCallPromiseESA_SB_SL_E3$_7EEEEEZNS8_21MakeServerCallPromiseESA_SB_SL_E3$_8E7DestroyEv"(ptr noundef nonnull align 8 dereferenceable(152) %this) unnamed_addr #3 align 2 {
entry:
  %0 = tail call align 8 ptr @llvm.threadlocal.address.p0(ptr align 8 @_ZN9grpc_core14promise_detail7ContextINS_5ArenaEE8current_E)
  %1 = load ptr, ptr %0, align 8
  %cmp.not.i = icmp eq ptr %1, null
  br i1 %cmp.not.i, label %if.then.i, label %_ZN9grpc_core10GetContextINS_5ArenaEEEPT_v.exit

if.then.i:                                        ; preds = %entry
  tail call void @gpr_assertion_failed(ptr noundef nonnull @.str.19, i32 noundef 80, ptr noundef nonnull @.str.20) #25
  unreachable

_ZN9grpc_core10GetContextINS_5ArenaEEEPT_v.exit:  ; preds = %entry
  tail call fastcc void @"_ZN9grpc_core5Arena12DeletePooledINS_5Party15ParticipantImplINS_14promise_detail4RaceIJNS4_3MapIZNS_25ExternallyObservableLatchIvE4WaitEvEUlvE_ZNS_12_GLOBAL__N_121MakeServerCallPromiseEPNS_9TransportENS_8CallArgsESt8functionIFNS_12ArenaPromiseISt10unique_ptrI19grpc_metadata_batchNS0_13PooledDeleterEEEESD_EEE3$_6EENS6_INS4_4LoopIZNSA_22ConnectedChannelStream12RecvMessagesEPNS_10PipeSenderISG_INS_7MessageESI_EEEbE3$_0EEZNSA_21MakeServerCallPromiseESC_SD_SM_E3$_7EEEEEZNSA_21MakeServerCallPromiseESC_SD_SM_E3$_8EEEEvPT_"(ptr noundef nonnull %this)
  ret void
}